; Function Attrs: nounwind uwtable
define dso_local void @lzma_outq_clear_cache(ptr noundef captures(none) %0, ptr noundef %1) local_unnamed_addr #1 {
  %3 = getelementptr inbounds nuw i8, ptr %0, i64 24
  %4 = load ptr, ptr %3, align 8, !tbaa !4
  %.not3 = icmp eq ptr %4, null
  br i1 %.not3, label %._crit_edge, label %.lr.ph

.lr.ph:                                           ; preds = %2
  %5 = getelementptr inbounds nuw i8, ptr %0, i64 52
  %6 = getelementptr inbounds nuw i8, ptr %0, i64 32
  br label %7

7:                                                ; preds = %.lr.ph, %7
  %8 = phi ptr [ %4, %.lr.ph ], [ %16, %7 ]
  %9 = load ptr, ptr %8, align 8, !tbaa !12
  store ptr %9, ptr %3, align 8, !tbaa !4
  %10 = load i32, ptr %5, align 4, !tbaa !13
  %11 = add i32 %10, -1
  store i32 %11, ptr %5, align 4, !tbaa !13
  %12 = getelementptr inbounds nuw i8, ptr %8, i64 16
  %13 = load i64, ptr %12, align 8, !tbaa !14
  %14 = load i64, ptr %6, align 8, !tbaa !15
  %reass.sub = sub i64 %14, %13
  %15 = add i64 %reass.sub, -64
  store i64 %15, ptr %6, align 8, !tbaa !15
  tail call void @lzma_free(ptr noundef nonnull %8, ptr noundef %1) #6
  %16 = load ptr, ptr %3, align 8, !tbaa !4
  %.not = icmp eq ptr %16, null
  br i1 %.not, label %._crit_edge, label %7, !llvm.loop !16

._crit_edge:                                      ; preds = %7, %2
  ret void
}